target datalayout = "e-m:e-p270:32:32-p271:32:32-p272:64:64-i64:64-i128:128-f80:128-n8:16:32:64-S128"
target triple = "x86_64-pc-linux-gnu"

%"class.llvm::Twine" = type <{ %"union.llvm::Twine::Child", %"union.llvm::Twine::Child", i8, i8, [6 x i8] }>
%"union.llvm::Twine::Child" = type { %struct.anon }
%struct.anon = type { ptr, i64 }

@.str.38 = private unnamed_addr constant [23 x i8] c".memtag.globals.static\00", align 1
@.str.39 = private unnamed_addr constant [1 x i8] zeroinitializer, align 1

; Function Attrs: mustprogress nounwind uwtable
define linkonce_odr hidden noundef ptr @_ZN4llvm9MCContext13getELFSectionERKNS_5TwineEjjjS3_b(ptr noundef nonnull align 8 dereferenceable(2432) %0, ptr noundef nonnull align 8 dereferenceable(34) %1, i32 noundef %2, i32 noundef %3, i32 noundef %4, ptr noundef nonnull align 8 dereferenceable(34) %5, i1 noundef zeroext %6) #0 comdat align 2 {
  %8 = alloca ptr, align 8
  %9 = alloca ptr, align 8
  %10 = alloca i32, align 4
  %11 = alloca i32, align 4
  %12 = alloca i32, align 4
  %13 = alloca ptr, align 8
  %14 = alloca i8, align 1
  store ptr %0, ptr %8, align 8
  store ptr %1, ptr %9, align 8
  store i32 %2, ptr %10, align 4
  store i32 %3, ptr %11, align 4
  store i32 %4, ptr %12, align 4
  store ptr %5, ptr %13, align 8
  %15 = zext i1 %6 to i8
  store i8 %15, ptr %14, align 1
  %16 = load ptr, ptr %8, align 8
  %17 = load ptr, ptr %9, align 8
  %18 = load i32, ptr %10, align 4
  %19 = load i32, ptr %11, align 4
  %20 = load i32, ptr %12, align 4
  %21 = load ptr, ptr %13, align 8
  %22 = load i8, ptr %14, align 1
  %23 = trunc i8 %22 to i1
  %24 = call noundef ptr @_ZN4llvm9MCContext13getELFSectionERKNS_5TwineEjjjS3_bjPKNS_11MCSymbolELFE(ptr noundef nonnull align 8 dereferenceable(2432) %16, ptr noundef nonnull align 8 dereferenceable(34) %17, i32 noundef %18, i32 noundef %19, i32 noundef %20, ptr noundef nonnull align 8 dereferenceable(34) %21, i1 noundef zeroext %23, i32 noundef -1, ptr noundef null)
  ret ptr %24
}

; Function Attrs: mustprogress nounwind uwtable
define linkonce_odr hidden noundef ptr @_ZN4llvm9MCContext13getELFSectionERKNS_5TwineEjj(ptr noundef nonnull align 8 dereferenceable(2432) %0, ptr noundef nonnull align 8 dereferenceable(34) %1, i32 noundef %2, i32 noundef %3) #0 comdat align 2 {
  %5 = alloca ptr, align 8
  %6 = alloca ptr, align 8
  %7 = alloca i32, align 4
  %8 = alloca i32, align 4
  %9 = alloca %"class.llvm::Twine", align 8
  store ptr %0, ptr %5, align 8
  store ptr %1, ptr %6, align 8
  store i32 %2, ptr %7, align 4
  store i32 %3, ptr %8, align 4
  %10 = load ptr, ptr %5, align 8
  %11 = load ptr, ptr %6, align 8
  %12 = load i32, ptr %7, align 4
  %13 = load i32, ptr %8, align 4
  call void @_ZN4llvm5TwineC2EPKc(ptr noundef nonnull align 8 dereferenceable(34) %9, ptr noundef @.str.39)
  %14 = call noundef ptr @_ZN4llvm9MCContext13getELFSectionERKNS_5TwineEjjjS3_b(ptr noundef nonnull align 8 dereferenceable(2432) %10, ptr noundef nonnull align 8 dereferenceable(34) %11, i32 noundef %12, i32 noundef %13, i32 noundef 0, ptr noundef nonnull align 8 dereferenceable(34) %9, i1 noundef zeroext false)
  ret ptr %14
}

; Function Attrs: mustprogress nounwind uwtable
define linkonce_odr hidden void @_ZN4llvm5TwineC2EPKc(ptr noundef nonnull align 8 dereferenceable(34) %0, ptr noundef %1) unnamed_addr #0 comdat align 2 {
  %3 = alloca ptr, align 8
  %4 = alloca ptr, align 8
  store ptr %0, ptr %3, align 8
  store ptr %1, ptr %4, align 8
  %5 = load ptr, ptr %3, align 8
  %6 = getelementptr inbounds nuw %"class.llvm::Twine", ptr %5, i32 0, i32 2
  store i8 1, ptr %6, align 8
  %7 = getelementptr inbounds nuw %"class.llvm::Twine", ptr %5, i32 0, i32 3
  store i8 1, ptr %7, align 1
  %8 = load ptr, ptr %4, align 8
  %9 = getelementptr inbounds i8, ptr %8, i64 0
  %10 = load i8, ptr %9, align 1
  %11 = sext i8 %10 to i32
  %12 = icmp ne i32 %11, 0
  br i1 %12, label %13, label %17

13:                                               ; preds = %2
  %14 = load ptr, ptr %4, align 8
  %15 = getelementptr inbounds nuw %"class.llvm::Twine", ptr %5, i32 0, i32 0
  store ptr %14, ptr %15, align 8
  %16 = getelementptr inbounds nuw %"class.llvm::Twine", ptr %5, i32 0, i32 2
  store i8 3, ptr %16, align 8
  br label %19

17:                                               ; preds = %2
  %18 = getelementptr inbounds nuw %"class.llvm::Twine", ptr %5, i32 0, i32 2
  store i8 1, ptr %18, align 8
  br label %19

19:                                               ; preds = %17, %13
  ret void
}

; Function Attrs: mustprogress nounwind uwtable
define internal noundef ptr @_ZNK12_GLOBAL__N_122AArch64ELFObjectWriter22getMemtagRelocsSectionERN4llvm9MCContextE(ptr noundef nonnull align 8 dereferenceable(14) %0, ptr noundef nonnull align 8 dereferenceable(2432) %1) unnamed_addr #0 align 2 {
  %3 = alloca ptr, align 8
  %4 = alloca ptr, align 8
  %5 = alloca %"class.llvm::Twine", align 8
  store ptr %0, ptr %3, align 8
  store ptr %1, ptr %4, align 8
  %6 = load ptr, ptr %4, align 8
  call void @_ZN4llvm5TwineC2EPKc(ptr noundef nonnull align 8 dereferenceable(34) %5, ptr noundef @.str.38)
  %7 = call noundef ptr @_ZN4llvm9MCContext13getELFSectionERKNS_5TwineEjj(ptr noundef nonnull align 8 dereferenceable(2432) %6, ptr noundef nonnull align 8 dereferenceable(34) %5, i32 noundef 1879048199, i32 noundef 0)
  ret ptr %7
}