; Function Attrs: mustprogress nounwind uwtable
define internal noundef ptr @_ZNK12_GLOBAL__N_122AArch64ELFObjectWriter22getMemtagRelocsSectionERN4llvm9MCContextE(ptr nocapture nonnull readnone align 8 %0, ptr noundef nonnull align 8 dereferenceable(2432) %1) unnamed_addr #0 align 2 {
  %3 = alloca %"class.llvm::Twine", align 8
  %4 = alloca %"class.llvm::Twine", align 8
  %5 = getelementptr inbounds nuw i8, ptr %4, i64 32
  %6 = getelementptr inbounds nuw i8, ptr %4, i64 33
  store i8 1, ptr %6, align 1
  store ptr @.str.38, ptr %4, align 8
  store i8 3, ptr %5, align 8
  call void @llvm.lifetime.start.p0(i64 40, ptr nonnull %3)
  %7 = getelementptr inbounds nuw i8, ptr %3, i64 32
  store i16 257, ptr %7, align 8
  %8 = call noundef ptr @_ZN4llvm9MCContext13getELFSectionERKNS_5TwineEjjjS3_bjPKNS_11MCSymbolELFE(ptr noundef nonnull align 8 dereferenceable(2432) %1, ptr noundef nonnull align 8 dereferenceable(34) %4, i32 noundef 1879048199, i32 noundef 0, i32 noundef 0, ptr noundef nonnull align 8 dereferenceable(34) %3, i1 noundef zeroext false, i32 noundef -1, ptr noundef null) #10
  call void @llvm.lifetime.end.p0(i64 40, ptr nonnull %3)
  ret ptr %8
}